; Function Attrs: mustprogress nounwind uwtable
define hidden void @_ZN8PhaseCFG17latency_from_usesEP4Node(ptr nocapture noundef nonnull readonly align 8 dereferenceable(160) %0, ptr noundef %1) local_unnamed_addr #0 align 2 {
  %3 = getelementptr inbounds i8, ptr %1, i64 44
  %4 = load i32, ptr %3, align 4
  %5 = and i32 %4, 15
  %6 = icmp eq i32 %5, 8
  br i1 %6, label %7, label %11

7:                                                ; preds = %2
  %8 = getelementptr inbounds i8, ptr %1, i64 8
  %9 = load ptr, ptr %8, align 8
  %10 = load ptr, ptr %9, align 8
  br label %11

11:                                               ; preds = %2, %7
  %12 = phi ptr [ %10, %7 ], [ %1, %2 ]
  %13 = getelementptr inbounds i8, ptr %1, i64 16
  %14 = load ptr, ptr %13, align 8
  %15 = getelementptr inbounds i8, ptr %1, i64 32
  %16 = load i32, ptr %15, align 8
  %17 = zext i32 %16 to i64
  %18 = getelementptr inbounds ptr, ptr %14, i64 %17
  %.not = icmp eq i32 %16, 0
  br i1 %.not, label %._crit_edge, label %.lr.ph

.lr.ph:                                           ; preds = %11, %.lr.ph
  %.018 = phi i32 [ %spec.select, %.lr.ph ], [ 0, %11 ]
  %.01517 = phi ptr [ %21, %.lr.ph ], [ %14, %11 ]
  %19 = load ptr, ptr %.01517, align 8
  %20 = tail call noundef i32 @_ZN8PhaseCFG16latency_from_useEP4NodePKS0_S1_(ptr noundef nonnull align 8 dereferenceable(160) %0, ptr noundef nonnull %1, ptr noundef %12, ptr noundef %19)
  %spec.select = tail call i32 @llvm.umax.i32(i32 %.018, i32 %20)
  %21 = getelementptr inbounds i8, ptr %.01517, i64 8
  %22 = icmp ult ptr %21, %18
  br i1 %22, label %.lr.ph, label %._crit_edge, !llvm.loop !42

._crit_edge:                                      ; preds = %.lr.ph, %11
  %.0.lcssa = phi i32 [ 0, %11 ], [ %spec.select, %.lr.ph ]
  %23 = getelementptr inbounds i8, ptr %0, i64 144
  %24 = load ptr, ptr %23, align 8
  %25 = getelementptr inbounds i8, ptr %1, i64 40
  %26 = load i32, ptr %25, align 8
  %27 = load i32, ptr %24, align 8
  %.not.i.i = icmp sgt i32 %27, %26
  br i1 %.not.i.i, label %_ZN8PhaseCFG20set_latency_for_nodeEP4Nodei.exit, label %28

28:                                               ; preds = %._crit_edge
  %29 = getelementptr inbounds i8, ptr %24, i64 4
  %30 = load i32, ptr %29, align 4
  %.not12.i.i = icmp sgt i32 %30, %26
  br i1 %.not12.i.i, label %41, label %31

31:                                               ; preds = %28
  %32 = add nsw i32 %26, 1
  %33 = icmp sgt i32 %26, -1
  %34 = xor i32 %26, -2147483648
  %35 = and i32 %34, %32
  %36 = icmp eq i32 %35, 0
  %37 = and i1 %33, %36
  %38 = tail call range(i32 0, 33) i32 @llvm.ctlz.i32(i32 %32, i1 true)
  %39 = sub nuw nsw i32 32, %38
  %40 = shl nuw i32 1, %39
  %.0.i.i.i.i.i = select i1 %37, i32 %32, i32 %40
  tail call void @_ZN26GrowableArrayWithAllocatorIj13GrowableArrayIjEE9expand_toEi(ptr noundef nonnull align 8 dereferenceable(16) %24, i32 noundef %.0.i.i.i.i.i)
  %.pre.i.i = load i32, ptr %24, align 8
  br label %41

41:                                               ; preds = %31, %28
  %42 = phi i32 [ %.pre.i.i, %31 ], [ %27, %28 ]
  %43 = icmp slt i32 %42, %26
  br i1 %43, label %.lr.ph.i.i, label %._crit_edge.i.i

.lr.ph.i.i:                                       ; preds = %41
  %44 = getelementptr inbounds i8, ptr %24, i64 8
  %45 = sext i32 %42 to i64
  %wide.trip.count.i.i = sext i32 %26 to i64
  br label %46

46:                                               ; preds = %46, %.lr.ph.i.i
  %indvars.iv.i.i = phi i64 [ %45, %.lr.ph.i.i ], [ %indvars.iv.next.i.i, %46 ]
  %47 = load ptr, ptr %44, align 8
  %48 = getelementptr inbounds i32, ptr %47, i64 %indvars.iv.i.i
  store i32 0, ptr %48, align 4
  %indvars.iv.next.i.i = add nsw i64 %indvars.iv.i.i, 1
  %exitcond.not.i.i = icmp eq i64 %indvars.iv.next.i.i, %wide.trip.count.i.i
  br i1 %exitcond.not.i.i, label %._crit_edge.i.i, label %46, !llvm.loop !38

._crit_edge.i.i:                                  ; preds = %46, %41
  %49 = add nsw i32 %26, 1
  store i32 %49, ptr %24, align 8
  br label %_ZN8PhaseCFG20set_latency_for_nodeEP4Nodei.exit

_ZN8PhaseCFG20set_latency_for_nodeEP4Nodei.exit:  ; preds = %._crit_edge, %._crit_edge.i.i
  %50 = getelementptr inbounds i8, ptr %24, i64 8
  %51 = load ptr, ptr %50, align 8
  %52 = sext i32 %26 to i64
  %53 = getelementptr inbounds i32, ptr %51, i64 %52
  store i32 %.0.lcssa, ptr %53, align 4
  ret void
}